target datalayout = "e-m:e-p270:32:32-p271:32:32-p272:64:64-i64:64-i128:128-f80:128-n8:16:32:64-S128"
target triple = "x86_64-pc-linux-gnu"

%struct.pmix_class_t = type { ptr, ptr, ptr, ptr, i32, i32, ptr, ptr, i64 }
%union.pthread_mutex_t = type { %struct.__pthread_mutex_s }
%struct.__pthread_mutex_s = type { i32, i32, i32, i32, i32, i16, i16, %struct.__pthread_internal_list }
%struct.__pthread_internal_list = type { ptr, ptr }
%struct.pmix_tma = type { ptr, ptr, ptr, ptr, ptr, ptr, ptr, ptr }
%struct.pmix_list_t = type { %struct.pmix_object_t, %struct.pmix_list_item_t, i64 }
%struct.pmix_object_t = type { %union.pthread_mutex_t, ptr, i32, %struct.pmix_tma }
%struct.pmix_list_item_t = type { %struct.pmix_object_t, ptr, ptr, i32 }
%struct.pmix_bfrops_globals_t = type { %struct.pmix_list_t, i8, i8, i64, i64, i8 }

@.str.14 = private unnamed_addr constant [21 x i8] c"pthread_mutex_lock()\00", align 1

; Function Attrs: inlinehint nounwind uwtable
define internal void @pmix_tma_free(ptr noundef %0, ptr noundef %1) #3 {
  %3 = alloca ptr, align 8
  %4 = alloca ptr, align 8
  store ptr %0, ptr %3, align 8, !tbaa !64
  store ptr %1, ptr %4, align 8, !tbaa !45
  %5 = load ptr, ptr %3, align 8, !tbaa !64
  %6 = icmp ne ptr null, %5
  br i1 %6, label %7, label %13

7:                                                ; preds = %2
  %8 = load ptr, ptr %3, align 8, !tbaa !64
  %9 = getelementptr inbounds nuw %struct.pmix_tma, ptr %8, i32 0, i32 5
  %10 = load ptr, ptr %9, align 8, !tbaa !84
  %11 = load ptr, ptr %3, align 8, !tbaa !64
  %12 = load ptr, ptr %4, align 8, !tbaa !45
  call void %10(ptr noundef %11, ptr noundef %12)
  br label %15

13:                                               ; preds = %2
  %14 = load ptr, ptr %4, align 8, !tbaa !45
  call void @free(ptr noundef %14) #10
  br label %15

15:                                               ; preds = %13, %7
  ret void
}

; Function Attrs: inlinehint nounwind uwtable
define internal void @pmix_obj_run_destructors(ptr noundef %0) #3 {
  %2 = alloca ptr, align 8
  %3 = alloca ptr, align 8
  store ptr %0, ptr %2, align 8, !tbaa !33
  call void @llvm.lifetime.start.p0(i64 8, ptr %3) #10
  %4 = load ptr, ptr %2, align 8, !tbaa !33
  %5 = getelementptr inbounds nuw %struct.pmix_object_t, ptr %4, i32 0, i32 1
  %6 = load ptr, ptr %5, align 8, !tbaa !24
  %7 = getelementptr inbounds nuw %struct.pmix_class_t, ptr %6, i32 0, i32 7
  %8 = load ptr, ptr %7, align 8, !tbaa !82
  store ptr %8, ptr %3, align 8, !tbaa !45
  br label %9

9:                                                ; preds = %13, %1
  %10 = load ptr, ptr %3, align 8, !tbaa !45
  %11 = load ptr, ptr %10, align 8, !tbaa !45
  %12 = icmp ne ptr null, %11
  br i1 %12, label %13, label %19

13:                                               ; preds = %9
  %14 = load ptr, ptr %3, align 8, !tbaa !45
  %15 = load ptr, ptr %14, align 8, !tbaa !45
  %16 = load ptr, ptr %2, align 8, !tbaa !33
  call void %15(ptr noundef %16)
  %17 = load ptr, ptr %3, align 8, !tbaa !45
  %18 = getelementptr inbounds nuw ptr, ptr %17, i32 1
  store ptr %18, ptr %3, align 8, !tbaa !45
  br label %9, !llvm.loop !83

19:                                               ; preds = %9
  call void @llvm.lifetime.end.p0(i64 8, ptr %3) #10
  ret void
}

; Function Attrs: alwaysinline nounwind uwtable
define internal i32 @pmix_obj_update(ptr noundef %0, i32 noundef %1) #5 {
  %3 = alloca ptr, align 8
  %4 = alloca i32, align 4
  %5 = alloca i32, align 4
  store ptr %0, ptr %3, align 8, !tbaa !33
  store i32 %1, ptr %4, align 4, !tbaa !3
  call void @llvm.lifetime.start.p0(i64 4, ptr %5) #10
  %6 = load ptr, ptr %3, align 8, !tbaa !33
  %7 = getelementptr inbounds nuw %struct.pmix_object_t, ptr %6, i32 0, i32 0
  %8 = call i32 @pthread_mutex_lock(ptr noundef %7) #10
  store i32 %8, ptr %5, align 4, !tbaa !3
  %9 = load i32, ptr %5, align 4, !tbaa !3
  %10 = icmp eq i32 %9, 35
  br i1 %10, label %11, label %14

11:                                               ; preds = %2
  %12 = load i32, ptr %5, align 4, !tbaa !3
  %13 = call ptr @__errno_location() #11
  store i32 %12, ptr %13, align 4, !tbaa !3
  call void @perror(ptr noundef @.str.14)
  call void @abort() #12
  unreachable

14:                                               ; preds = %2
  %15 = load i32, ptr %4, align 4, !tbaa !3
  %16 = load ptr, ptr %3, align 8, !tbaa !33
  %17 = getelementptr inbounds nuw %struct.pmix_object_t, ptr %16, i32 0, i32 2
  %18 = load i32, ptr %17, align 8, !tbaa !25
  %19 = add nsw i32 %18, %15
  store i32 %19, ptr %17, align 8, !tbaa !25
  store i32 %19, ptr %5, align 4, !tbaa !3
  %20 = load ptr, ptr %3, align 8, !tbaa !33
  %21 = getelementptr inbounds nuw %struct.pmix_object_t, ptr %20, i32 0, i32 0
  %22 = call i32 @pthread_mutex_unlock(ptr noundef %21) #10
  %23 = load i32, ptr %5, align 4, !tbaa !3
  call void @llvm.lifetime.end.p0(i64 4, ptr %5) #10
  ret i32 %23
}

; Function Attrs: inlinehint nounwind uwtable
define internal ptr @pmix_list_remove_first(ptr noundef %0) #3 {
  %2 = alloca ptr, align 8
  %3 = alloca ptr, align 8
  %4 = alloca ptr, align 8
  %5 = alloca i32, align 4
  store ptr %0, ptr %3, align 8, !tbaa !76
  call void @llvm.lifetime.start.p0(i64 8, ptr %4) #10
  %6 = load ptr, ptr %3, align 8, !tbaa !76
  %7 = getelementptr inbounds nuw %struct.pmix_list_t, ptr %6, i32 0, i32 2
  %8 = load volatile i64, ptr %7, align 8, !tbaa !78
  %9 = icmp eq i64 0, %8
  br i1 %9, label %10, label %11

10:                                               ; preds = %1
  store ptr null, ptr %2, align 8
  store i32 1, ptr %5, align 4
  br label %34

11:                                               ; preds = %1
  %12 = load ptr, ptr %3, align 8, !tbaa !76
  %13 = getelementptr inbounds nuw %struct.pmix_list_t, ptr %12, i32 0, i32 2
  %14 = load volatile i64, ptr %13, align 8, !tbaa !78
  %15 = add i64 %14, -1
  store volatile i64 %15, ptr %13, align 8, !tbaa !78
  %16 = load ptr, ptr %3, align 8, !tbaa !76
  %17 = getelementptr inbounds nuw %struct.pmix_list_t, ptr %16, i32 0, i32 1
  %18 = getelementptr inbounds nuw %struct.pmix_list_item_t, ptr %17, i32 0, i32 1
  %19 = load ptr, ptr %18, align 8, !tbaa !79
  store ptr %19, ptr %4, align 8, !tbaa !32
  %20 = load ptr, ptr %4, align 8, !tbaa !32
  %21 = getelementptr inbounds nuw %struct.pmix_list_item_t, ptr %20, i32 0, i32 2
  %22 = load volatile ptr, ptr %21, align 8, !tbaa !80
  %23 = load ptr, ptr %4, align 8, !tbaa !32
  %24 = getelementptr inbounds nuw %struct.pmix_list_item_t, ptr %23, i32 0, i32 1
  %25 = load volatile ptr, ptr %24, align 8, !tbaa !81
  %26 = getelementptr inbounds nuw %struct.pmix_list_item_t, ptr %25, i32 0, i32 2
  store volatile ptr %22, ptr %26, align 8, !tbaa !80
  %27 = load ptr, ptr %4, align 8, !tbaa !32
  %28 = getelementptr inbounds nuw %struct.pmix_list_item_t, ptr %27, i32 0, i32 1
  %29 = load volatile ptr, ptr %28, align 8, !tbaa !81
  %30 = load ptr, ptr %3, align 8, !tbaa !76
  %31 = getelementptr inbounds nuw %struct.pmix_list_t, ptr %30, i32 0, i32 1
  %32 = getelementptr inbounds nuw %struct.pmix_list_item_t, ptr %31, i32 0, i32 1
  store ptr %29, ptr %32, align 8, !tbaa !79
  %33 = load ptr, ptr %4, align 8, !tbaa !32
  store ptr %33, ptr %2, align 8
  store i32 1, ptr %5, align 4
  br label %34

34:                                               ; preds = %11, %10
  call void @llvm.lifetime.end.p0(i64 8, ptr %4) #10
  %35 = load ptr, ptr %2, align 8
  ret ptr %35
}

; Function Attrs: nounwind uwtable
define internal i32 @pmix_bfrop_close() #0 {
  %1 = alloca i32, align 4
  %2 = alloca ptr, align 8
  %3 = alloca ptr, align 8
  %4 = load i8, ptr getelementptr inbounds nuw (%struct.pmix_bfrops_globals_t, ptr @pmix_bfrops_globals, i32 0, i32 1), align 8, !tbaa !20, !range !29, !noundef !30
  %5 = trunc i8 %4 to i1
  br i1 %5, label %7, label %6

6:                                                ; preds = %0
  store i32 0, ptr %1, align 4
  br label %41

7:                                                ; preds = %0
  store i8 0, ptr getelementptr inbounds nuw (%struct.pmix_bfrops_globals_t, ptr @pmix_bfrops_globals, i32 0, i32 1), align 8, !tbaa !20
  store i8 0, ptr getelementptr inbounds nuw (%struct.pmix_bfrops_globals_t, ptr @pmix_bfrops_globals, i32 0, i32 2), align 1, !tbaa !31
  br label %8

8:                                                ; preds = %7
  call void @llvm.lifetime.start.p0(i64 8, ptr %2) #10
  br label %9

9:                                                ; preds = %34, %8
  %10 = call ptr @pmix_list_remove_first(ptr noundef @pmix_bfrops_globals)
  store ptr %10, ptr %2, align 8, !tbaa !32
  %11 = icmp ne ptr null, %10
  br i1 %11, label %12, label %35

12:                                               ; preds = %9
  br label %13

13:                                               ; preds = %12
  call void @llvm.lifetime.start.p0(i64 8, ptr %3) #10
  %14 = load ptr, ptr %2, align 8, !tbaa !32
  store ptr %14, ptr %3, align 8, !tbaa !33
  %15 = load ptr, ptr %3, align 8, !tbaa !33
  %16 = call i32 @pmix_obj_update(ptr noundef %15, i32 noundef -1)
  %17 = icmp eq i32 0, %16
  br i1 %17, label %18, label %32

18:                                               ; preds = %13
  %19 = load ptr, ptr %3, align 8, !tbaa !33
  call void @pmix_obj_run_destructors(ptr noundef %19)
  %20 = load ptr, ptr %3, align 8, !tbaa !33
  %21 = getelementptr inbounds nuw %struct.pmix_object_t, ptr %20, i32 0, i32 3
  %22 = getelementptr inbounds nuw %struct.pmix_tma, ptr %21, i32 0, i32 5
  %23 = load ptr, ptr %22, align 8, !tbaa !35
  %24 = icmp ne ptr null, %23
  br i1 %24, label %25, label %29

25:                                               ; preds = %18
  %26 = load ptr, ptr %3, align 8, !tbaa !33
  %27 = getelementptr inbounds nuw %struct.pmix_object_t, ptr %26, i32 0, i32 3
  %28 = load ptr, ptr %2, align 8, !tbaa !32
  call void @pmix_tma_free(ptr noundef %27, ptr noundef %28)
  br label %31

29:                                               ; preds = %18
  %30 = load ptr, ptr %2, align 8, !tbaa !32
  call void @free(ptr noundef %30) #10
  br label %31

31:                                               ; preds = %29, %25
  store ptr null, ptr %2, align 8, !tbaa !32
  br label %32

32:                                               ; preds = %31, %13
  call void @llvm.lifetime.end.p0(i64 8, ptr %3) #10
  br label %33

33:                                               ; preds = %32
  br label %34

34:                                               ; preds = %33
  br label %9, !llvm.loop !36

35:                                               ; preds = %9
  br label %36

36:                                               ; preds = %35
  call void @pmix_obj_run_destructors(ptr noundef @pmix_bfrops_globals)
  br label %37

37:                                               ; preds = %36
  br label %38

38:                                               ; preds = %37
  call void @llvm.lifetime.end.p0(i64 8, ptr %2) #10
  br label %39

39:                                               ; preds = %38
  %40 = call i32 @pmix_mca_base_framework_components_close(ptr noundef @pmix_bfrops_base_framework, ptr noundef null)
  store i32 %40, ptr %1, align 4
  br label %41

41:                                               ; preds = %39, %6
  %42 = load i32, ptr %1, align 4
  ret i32 %42
}