; Function Attrs: nounwind uwtable
define internal i32 @pmix_bfrop_close() #0 {
  %1 = load i8, ptr getelementptr inbounds nuw (i8, ptr @pmix_bfrops_globals, i64 272), align 8, !tbaa !19, !range !33, !noundef !34
  %2 = trunc nuw i8 %1 to i1
  br i1 %2, label %3, label %49

3:                                                ; preds = %0
  store i8 0, ptr getelementptr inbounds nuw (i8, ptr @pmix_bfrops_globals, i64 272), align 8, !tbaa !19
  store i8 0, ptr getelementptr inbounds nuw (i8, ptr @pmix_bfrops_globals, i64 273), align 1, !tbaa !35
  %4 = load volatile i64, ptr getelementptr inbounds nuw (i8, ptr @pmix_bfrops_globals, i64 264), align 8, !tbaa !36
  %5 = icmp eq i64 %4, 0
  br i1 %5, label %._crit_edge, label %.lr.ph

.lr.ph:                                           ; preds = %3, %38
  %6 = load volatile i64, ptr getelementptr inbounds nuw (i8, ptr @pmix_bfrops_globals, i64 264), align 8, !tbaa !36
  %7 = add i64 %6, -1
  store volatile i64 %7, ptr getelementptr inbounds nuw (i8, ptr @pmix_bfrops_globals, i64 264), align 8, !tbaa !36
  %8 = load ptr, ptr getelementptr inbounds nuw (i8, ptr @pmix_bfrops_globals, i64 240), align 8, !tbaa !37
  %9 = getelementptr inbounds nuw i8, ptr %8, i64 128
  %10 = load volatile ptr, ptr %9, align 8, !tbaa !38
  %11 = getelementptr inbounds nuw i8, ptr %8, i64 120
  %12 = load volatile ptr, ptr %11, align 8, !tbaa !39
  %13 = getelementptr inbounds nuw i8, ptr %12, i64 128
  store volatile ptr %10, ptr %13, align 8, !tbaa !38
  %14 = load volatile ptr, ptr %11, align 8, !tbaa !39
  store ptr %14, ptr getelementptr inbounds nuw (i8, ptr @pmix_bfrops_globals, i64 240), align 8, !tbaa !37
  %15 = tail call i32 @pthread_mutex_lock(ptr noundef nonnull %8) #11
  %16 = icmp eq i32 %15, 35
  br i1 %16, label %17, label %pmix_obj_update.exit

17:                                               ; preds = %.lr.ph
  %18 = tail call ptr @__errno_location() #12
  store i32 35, ptr %18, align 4, !tbaa !20
  tail call void @perror(ptr noundef nonnull @.str.14) #13
  tail call void @abort() #14
  unreachable

pmix_obj_update.exit:                             ; preds = %.lr.ph
  %19 = getelementptr inbounds nuw i8, ptr %8, i64 48
  %20 = load i32, ptr %19, align 8, !tbaa !25
  %21 = add nsw i32 %20, -1
  store i32 %21, ptr %19, align 8, !tbaa !25
  %22 = tail call i32 @pthread_mutex_unlock(ptr noundef nonnull %8) #11
  %23 = icmp eq i32 %21, 0
  br i1 %23, label %24, label %38

24:                                               ; preds = %pmix_obj_update.exit
  %25 = getelementptr inbounds nuw i8, ptr %8, i64 40
  %26 = load ptr, ptr %25, align 8, !tbaa !24
  %27 = getelementptr inbounds nuw i8, ptr %26, i64 48
  %28 = load ptr, ptr %27, align 8, !tbaa !40
  %29 = load ptr, ptr %28, align 8, !tbaa !27
  %.not6.i = icmp eq ptr %29, null
  br i1 %.not6.i, label %pmix_obj_run_destructors.exit, label %.lr.ph.i

.lr.ph.i:                                         ; preds = %24, %.lr.ph.i
  %30 = phi ptr [ %32, %.lr.ph.i ], [ %29, %24 ]
  %.07.i = phi ptr [ %31, %.lr.ph.i ], [ %28, %24 ]
  tail call void %30(ptr noundef nonnull %8) #11
  %31 = getelementptr inbounds nuw i8, ptr %.07.i, i64 8
  %32 = load ptr, ptr %31, align 8, !tbaa !27
  %.not.i = icmp eq ptr %32, null
  br i1 %.not.i, label %pmix_obj_run_destructors.exit, label %.lr.ph.i, !llvm.loop !41

pmix_obj_run_destructors.exit:                    ; preds = %.lr.ph.i, %24
  %33 = getelementptr inbounds nuw i8, ptr %8, i64 96
  %34 = load ptr, ptr %33, align 8, !tbaa !42
  %.not8 = icmp eq ptr %34, null
  br i1 %.not8, label %37, label %35

35:                                               ; preds = %pmix_obj_run_destructors.exit
  %36 = getelementptr inbounds nuw i8, ptr %8, i64 56
  tail call void %34(ptr noundef nonnull %36, ptr noundef nonnull %8) #11
  br label %38

37:                                               ; preds = %pmix_obj_run_destructors.exit
  tail call void @free(ptr noundef nonnull %8) #11
  br label %38

38:                                               ; preds = %35, %37, %pmix_obj_update.exit
  %39 = load volatile i64, ptr getelementptr inbounds nuw (i8, ptr @pmix_bfrops_globals, i64 264), align 8, !tbaa !36
  %40 = icmp eq i64 %39, 0
  br i1 %40, label %._crit_edge, label %.lr.ph, !llvm.loop !43

._crit_edge:                                      ; preds = %38, %3
  %41 = load ptr, ptr getelementptr inbounds nuw (i8, ptr @pmix_bfrops_globals, i64 40), align 8, !tbaa !24
  %42 = getelementptr inbounds nuw i8, ptr %41, i64 48
  %43 = load ptr, ptr %42, align 8, !tbaa !40
  %44 = load ptr, ptr %43, align 8, !tbaa !27
  %.not6.i10 = icmp eq ptr %44, null
  br i1 %.not6.i10, label %pmix_obj_run_destructors.exit14, label %.lr.ph.i11

.lr.ph.i11:                                       ; preds = %._crit_edge, %.lr.ph.i11
  %45 = phi ptr [ %47, %.lr.ph.i11 ], [ %44, %._crit_edge ]
  %.07.i12 = phi ptr [ %46, %.lr.ph.i11 ], [ %43, %._crit_edge ]
  tail call void %45(ptr noundef nonnull @pmix_bfrops_globals) #11
  %46 = getelementptr inbounds nuw i8, ptr %.07.i12, i64 8
  %47 = load ptr, ptr %46, align 8, !tbaa !27
  %.not.i13 = icmp eq ptr %47, null
  br i1 %.not.i13, label %pmix_obj_run_destructors.exit14, label %.lr.ph.i11, !llvm.loop !41

pmix_obj_run_destructors.exit14:                  ; preds = %.lr.ph.i11, %._crit_edge
  %48 = tail call i32 @pmix_mca_base_framework_components_close(ptr noundef nonnull @pmix_bfrops_base_framework, ptr noundef null) #11
  br label %49

49:                                               ; preds = %0, %pmix_obj_run_destructors.exit14
  %.0 = phi i32 [ %48, %pmix_obj_run_destructors.exit14 ], [ 0, %0 ]
  ret i32 %.0
}